; Function Attrs: mustprogress nounwind willreturn memory(argmem: readwrite, inaccessiblemem: readwrite) uwtable
define internal noalias noundef ptr @_cmsReallocDefaultFn(ptr nocapture readnone %0, ptr nocapture noundef %1, i32 noundef %2) #7 {
  %4 = icmp ugt i32 %2, 536870912
  br i1 %4, label %8, label %5

5:                                                ; preds = %3
  %6 = zext nneg i32 %2 to i64
  %7 = tail call ptr @realloc(ptr noundef %1, i64 noundef %6) #21
  br label %8

8:                                                ; preds = %3, %5
  %.0 = phi ptr [ %7, %5 ], [ null, %3 ]
  ret ptr %.0
}